; ModuleID = '5/1186.c'
source_filename = "5/1186.c"
target datalayout = "e-m:e-p270:32:32-p271:32:32-p272:64:64-i64:64-f80:128-n8:16:32:64-S128"
target triple = "x86_64-pc-linux-gnu"

@.str = private unnamed_addr constant [4 x i8] c"%lf\00", align 1
@.str.1 = private unnamed_addr constant [6 x i8] c"%s %s\00", align 1
@.str.2 = private unnamed_addr constant [6 x i8] c"error\00", align 1
@.str.3 = private unnamed_addr constant [4 x i8] c"yes\00", align 1
@.str.4 = private unnamed_addr constant [3 x i8] c"no\00", align 1

; Function Attrs: noinline nounwind uwtable
define dso_local i32 @main() #0 {
  %1 = alloca i32, align 4
  %2 = alloca [500 x i8], align 16
  %3 = alloca [500 x i8], align 16
  %4 = alloca i32, align 4
  %5 = alloca i32, align 4
  %6 = alloca i32, align 4
  %7 = alloca i32, align 4
  %8 = alloca i32, align 4
  %9 = alloca double, align 8
  store i32 0, i32* %1, align 4
  %10 = call i32 (i8*, ...) @__isoc99_scanf(i8* getelementptr inbounds ([4 x i8], [4 x i8]* @.str, i64 0, i64 0), double* %9)
  %11 = getelementptr inbounds [500 x i8], [500 x i8]* %2, i64 0, i64 0
  %12 = getelementptr inbounds [500 x i8], [500 x i8]* %3, i64 0, i64 0
  %13 = call i32 (i8*, ...) @__isoc99_scanf(i8* getelementptr inbounds ([6 x i8], [6 x i8]* @.str.1, i64 0, i64 0), i8* %11, i8* %12)
  %14 = getelementptr inbounds [500 x i8], [500 x i8]* %2, i64 0, i64 0
  %15 = call i64 @strlen(i8* %14) #3
  %16 = trunc i64 %15 to i32
  store i32 %16, i32* %7, align 4
  %17 = getelementptr inbounds [500 x i8], [500 x i8]* %3, i64 0, i64 0
  %18 = call i64 @strlen(i8* %17) #3
  %19 = trunc i64 %18 to i32
  store i32 %19, i32* %8, align 4
  store i32 0, i32* %4, align 4
  br label %20

20:                                               ; preds = %89, %0
  %21 = load i32, i32* %4, align 4
  %22 = sext i32 %21 to i64
  %23 = getelementptr inbounds [500 x i8], [500 x i8]* %2, i64 0, i64 %22
  %24 = load i8, i8* %23, align 1
  %25 = icmp ne i8 %24, 0
  br i1 %25, label %26, label %92

26:                                               ; preds = %20
  %27 = load i32, i32* %8, align 4
  %28 = load i32, i32* %7, align 4
  %29 = icmp ne i32 %27, %28
  br i1 %29, label %86, label %30

30:                                               ; preds = %26
  %31 = load i32, i32* %4, align 4
  %32 = sext i32 %31 to i64
  %33 = getelementptr inbounds [500 x i8], [500 x i8]* %2, i64 0, i64 %32
  %34 = load i8, i8* %33, align 1
  %35 = sext i8 %34 to i32
  %36 = icmp ne i32 %35, 65
  br i1 %36, label %37, label %58

37:                                               ; preds = %30
  %38 = load i32, i32* %4, align 4
  %39 = sext i32 %38 to i64
  %40 = getelementptr inbounds [500 x i8], [500 x i8]* %2, i64 0, i64 %39
  %41 = load i8, i8* %40, align 1
  %42 = sext i8 %41 to i32
  %43 = icmp ne i32 %42, 84
  br i1 %43, label %44, label %58

44:                                               ; preds = %37
  %45 = load i32, i32* %4, align 4
  %46 = sext i32 %45 to i64
  %47 = getelementptr inbounds [500 x i8], [500 x i8]* %2, i64 0, i64 %46
  %48 = load i8, i8* %47, align 1
  %49 = sext i8 %48 to i32
  %50 = icmp ne i32 %49, 71
  br i1 %50, label %51, label %58

51:                                               ; preds = %44
  %52 = load i32, i32* %4, align 4
  %53 = sext i32 %52 to i64
  %54 = getelementptr inbounds [500 x i8], [500 x i8]* %2, i64 0, i64 %53
  %55 = load i8, i8* %54, align 1
  %56 = sext i8 %55 to i32
  %57 = icmp ne i32 %56, 67
  br i1 %57, label %86, label %58

58:                                               ; preds = %51, %44, %37, %30
  %59 = load i32, i32* %4, align 4
  %60 = sext i32 %59 to i64
  %61 = getelementptr inbounds [500 x i8], [500 x i8]* %3, i64 0, i64 %60
  %62 = load i8, i8* %61, align 1
  %63 = sext i8 %62 to i32
  %64 = icmp ne i32 %63, 65
  br i1 %64, label %65, label %88

65:                                               ; preds = %58
  %66 = load i32, i32* %4, align 4
  %67 = sext i32 %66 to i64
  %68 = getelementptr inbounds [500 x i8], [500 x i8]* %3, i64 0, i64 %67
  %69 = load i8, i8* %68, align 1
  %70 = sext i8 %69 to i32
  %71 = icmp ne i32 %70, 84
  br i1 %71, label %72, label %88

72:                                               ; preds = %65
  %73 = load i32, i32* %4, align 4
  %74 = sext i32 %73 to i64
  %75 = getelementptr inbounds [500 x i8], [500 x i8]* %3, i64 0, i64 %74
  %76 = load i8, i8* %75, align 1
  %77 = sext i8 %76 to i32
  %78 = icmp ne i32 %77, 71
  br i1 %78, label %79, label %88

79:                                               ; preds = %72
  %80 = load i32, i32* %4, align 4
  %81 = sext i32 %80 to i64
  %82 = getelementptr inbounds [500 x i8], [500 x i8]* %3, i64 0, i64 %81
  %83 = load i8, i8* %82, align 1
  %84 = sext i8 %83 to i32
  %85 = icmp ne i32 %84, 67
  br i1 %85, label %86, label %88

86:                                               ; preds = %79, %51, %26
  %87 = call i32 (i8*, ...) @printf(i8* getelementptr inbounds ([6 x i8], [6 x i8]* @.str.2, i64 0, i64 0))
  store i32 0, i32* %1, align 4
  br label %133

88:                                               ; preds = %79, %72, %65, %58
  br label %89

89:                                               ; preds = %88
  %90 = load i32, i32* %4, align 4
  %91 = add nsw i32 %90, 1
  store i32 %91, i32* %4, align 4
  br label %20

92:                                               ; preds = %20
  store i32 0, i32* %6, align 4
  store i32 0, i32* %5, align 4
  br label %93

93:                                               ; preds = %116, %92
  %94 = load i32, i32* %5, align 4
  %95 = sext i32 %94 to i64
  %96 = getelementptr inbounds [500 x i8], [500 x i8]* %2, i64 0, i64 %95
  %97 = load i8, i8* %96, align 1
  %98 = sext i8 %97 to i32
  %99 = icmp ne i32 %98, 0
  br i1 %99, label %100, label %119

100:                                              ; preds = %93
  %101 = load i32, i32* %5, align 4
  %102 = sext i32 %101 to i64
  %103 = getelementptr inbounds [500 x i8], [500 x i8]* %2, i64 0, i64 %102
  %104 = load i8, i8* %103, align 1
  %105 = sext i8 %104 to i32
  %106 = load i32, i32* %5, align 4
  %107 = sext i32 %106 to i64
  %108 = getelementptr inbounds [500 x i8], [500 x i8]* %3, i64 0, i64 %107
  %109 = load i8, i8* %108, align 1
  %110 = sext i8 %109 to i32
  %111 = icmp eq i32 %105, %110
  br i1 %111, label %112, label %115

112:                                              ; preds = %100
  %113 = load i32, i32* %6, align 4
  %114 = add nsw i32 %113, 1
  store i32 %114, i32* %6, align 4
  br label %115

115:                                              ; preds = %112, %100
  br label %116

116:                                              ; preds = %115
  %117 = load i32, i32* %5, align 4
  %118 = add nsw i32 %117, 1
  store i32 %118, i32* %5, align 4
  br label %93

119:                                              ; preds = %93
  %120 = load i32, i32* %6, align 4
  %121 = sitofp i32 %120 to double
  %122 = fmul double 1.000000e+00, %121
  %123 = load i32, i32* %7, align 4
  %124 = sitofp i32 %123 to double
  %125 = fdiv double %122, %124
  %126 = load double, double* %9, align 8
  %127 = fcmp ogt double %125, %126
  br i1 %127, label %128, label %130

128:                                              ; preds = %119
  %129 = call i32 (i8*, ...) @printf(i8* getelementptr inbounds ([4 x i8], [4 x i8]* @.str.3, i64 0, i64 0))
  store i32 0, i32* %1, align 4
  br label %133

130:                                              ; preds = %119
  %131 = call i32 (i8*, ...) @printf(i8* getelementptr inbounds ([3 x i8], [3 x i8]* @.str.4, i64 0, i64 0))
  br label %132

132:                                              ; preds = %130
  store i32 0, i32* %1, align 4
  br label %133

133:                                              ; preds = %132, %128, %86
  %134 = load i32, i32* %1, align 4
  ret i32 %134
}

declare dso_local i32 @__isoc99_scanf(i8*, ...) #1

; Function Attrs: nounwind readonly
declare dso_local i64 @strlen(i8*) #2

declare dso_local i32 @printf(i8*, ...) #1


!llvm.module.flags = !{!0}
!llvm.ident = !{!1}

!0 = !{i32 1, !"wchar_size", i32 4}
!1 = !{!"clang version 10.0.0-4ubuntu1 "}
